target datalayout = "e-m:e-p270:32:32-p271:32:32-p272:64:64-i64:64-i128:128-f80:128-n8:16:32:64-S128"
target triple = "x86_64-pc-linux-gnu"

%"struct.gmx::t_sortblock" = type { [3 x i32], i32 }

; Function Attrs: mustprogress nounwind uwtable
define linkonce_odr noundef nonnull align 4 dereferenceable(4) ptr @_ZSt3maxIiERKT_S2_S2_(ptr noundef nonnull align 4 dereferenceable(4) %0, ptr noundef nonnull align 4 dereferenceable(4) %1) #1 comdat {
  %3 = alloca ptr, align 8
  %4 = alloca ptr, align 8
  %5 = alloca ptr, align 8
  store ptr %0, ptr %4, align 8
  store ptr %1, ptr %5, align 8
  %6 = load ptr, ptr %4, align 8
  %7 = load i32, ptr %6, align 4
  %8 = load ptr, ptr %5, align 8
  %9 = load i32, ptr %8, align 4
  %10 = icmp slt i32 %7, %9
  br i1 %10, label %11, label %13

11:                                               ; preds = %2
  %12 = load ptr, ptr %5, align 8
  store ptr %12, ptr %3, align 8
  br label %15

13:                                               ; preds = %2
  %14 = load ptr, ptr %4, align 8
  store ptr %14, ptr %3, align 8
  br label %15

15:                                               ; preds = %13, %11
  %16 = load ptr, ptr %3, align 8
  ret ptr %16
}

; Function Attrs: mustprogress nounwind uwtable
define linkonce_odr noundef nonnull align 4 dereferenceable(4) ptr @_ZSt3minIiERKT_S2_S2_(ptr noundef nonnull align 4 dereferenceable(4) %0, ptr noundef nonnull align 4 dereferenceable(4) %1) #1 comdat {
  %3 = alloca ptr, align 8
  %4 = alloca ptr, align 8
  %5 = alloca ptr, align 8
  store ptr %0, ptr %4, align 8
  store ptr %1, ptr %5, align 8
  %6 = load ptr, ptr %5, align 8
  %7 = load i32, ptr %6, align 4
  %8 = load ptr, ptr %4, align 8
  %9 = load i32, ptr %8, align 4
  %10 = icmp slt i32 %7, %9
  br i1 %10, label %11, label %13

11:                                               ; preds = %2
  %12 = load ptr, ptr %5, align 8
  store ptr %12, ptr %3, align 8
  br label %15

13:                                               ; preds = %2
  %14 = load ptr, ptr %4, align 8
  store ptr %14, ptr %3, align 8
  br label %15

15:                                               ; preds = %13, %11
  %16 = load ptr, ptr %3, align 8
  ret ptr %16
}

; Function Attrs: mustprogress uwtable
define internal noundef i32 @_ZN3gmxL5pcompEPKvS1_(ptr noundef %0, ptr noundef %1) #0 {
  %3 = alloca i32, align 4
  %4 = alloca ptr, align 8
  %5 = alloca ptr, align 8
  %6 = alloca i32, align 4
  %7 = alloca i32, align 4
  %8 = alloca i32, align 4
  %9 = alloca i32, align 4
  %10 = alloca i32, align 4
  %11 = alloca ptr, align 8
  %12 = alloca ptr, align 8
  store ptr %0, ptr %4, align 8
  store ptr %1, ptr %5, align 8
  %13 = load ptr, ptr %4, align 8
  store ptr %13, ptr %11, align 8
  %14 = load ptr, ptr %5, align 8
  store ptr %14, ptr %12, align 8
  %15 = load ptr, ptr %11, align 8
  %16 = getelementptr inbounds %"struct.gmx::t_sortblock", ptr %15, i32 0, i32 1
  %17 = load i32, ptr %16, align 4
  %18 = load ptr, ptr %12, align 8
  %19 = getelementptr inbounds %"struct.gmx::t_sortblock", ptr %18, i32 0, i32 1
  %20 = load i32, ptr %19, align 4
  %21 = sub nsw i32 %17, %20
  store i32 %21, ptr %6, align 4
  %22 = load i32, ptr %6, align 4
  %23 = icmp ne i32 %22, 0
  br i1 %23, label %24, label %26

24:                                               ; preds = %2
  %25 = load i32, ptr %6, align 4
  store i32 %25, ptr %3, align 4
  br label %70

26:                                               ; preds = %2
  %27 = load ptr, ptr %11, align 8
  %28 = getelementptr inbounds %"struct.gmx::t_sortblock", ptr %27, i32 0, i32 0
  %29 = getelementptr inbounds [3 x i32], ptr %28, i64 0, i64 1
  %30 = load ptr, ptr %11, align 8
  %31 = getelementptr inbounds %"struct.gmx::t_sortblock", ptr %30, i32 0, i32 0
  %32 = getelementptr inbounds [3 x i32], ptr %31, i64 0, i64 2
  %33 = call noundef nonnull align 4 dereferenceable(4) ptr @_ZSt3minIiERKT_S2_S2_(ptr noundef nonnull align 4 dereferenceable(4) %29, ptr noundef nonnull align 4 dereferenceable(4) %32)
  %34 = load i32, ptr %33, align 4
  store i32 %34, ptr %7, align 4
  %35 = load ptr, ptr %11, align 8
  %36 = getelementptr inbounds %"struct.gmx::t_sortblock", ptr %35, i32 0, i32 0
  %37 = getelementptr inbounds [3 x i32], ptr %36, i64 0, i64 1
  %38 = load ptr, ptr %11, align 8
  %39 = getelementptr inbounds %"struct.gmx::t_sortblock", ptr %38, i32 0, i32 0
  %40 = getelementptr inbounds [3 x i32], ptr %39, i64 0, i64 2
  %41 = call noundef nonnull align 4 dereferenceable(4) ptr @_ZSt3maxIiERKT_S2_S2_(ptr noundef nonnull align 4 dereferenceable(4) %37, ptr noundef nonnull align 4 dereferenceable(4) %40)
  %42 = load i32, ptr %41, align 4
  store i32 %42, ptr %9, align 4
  %43 = load ptr, ptr %12, align 8
  %44 = getelementptr inbounds %"struct.gmx::t_sortblock", ptr %43, i32 0, i32 0
  %45 = getelementptr inbounds [3 x i32], ptr %44, i64 0, i64 1
  %46 = load ptr, ptr %12, align 8
  %47 = getelementptr inbounds %"struct.gmx::t_sortblock", ptr %46, i32 0, i32 0
  %48 = getelementptr inbounds [3 x i32], ptr %47, i64 0, i64 2
  %49 = call noundef nonnull align 4 dereferenceable(4) ptr @_ZSt3minIiERKT_S2_S2_(ptr noundef nonnull align 4 dereferenceable(4) %45, ptr noundef nonnull align 4 dereferenceable(4) %48)
  %50 = load i32, ptr %49, align 4
  store i32 %50, ptr %8, align 4
  %51 = load ptr, ptr %12, align 8
  %52 = getelementptr inbounds %"struct.gmx::t_sortblock", ptr %51, i32 0, i32 0
  %53 = getelementptr inbounds [3 x i32], ptr %52, i64 0, i64 1
  %54 = load ptr, ptr %12, align 8
  %55 = getelementptr inbounds %"struct.gmx::t_sortblock", ptr %54, i32 0, i32 0
  %56 = getelementptr inbounds [3 x i32], ptr %55, i64 0, i64 2
  %57 = call noundef nonnull align 4 dereferenceable(4) ptr @_ZSt3maxIiERKT_S2_S2_(ptr noundef nonnull align 4 dereferenceable(4) %53, ptr noundef nonnull align 4 dereferenceable(4) %56)
  %58 = load i32, ptr %57, align 4
  store i32 %58, ptr %10, align 4
  %59 = load i32, ptr %7, align 4
  %60 = load i32, ptr %8, align 4
  %61 = icmp eq i32 %59, %60
  br i1 %61, label %62, label %66

62:                                               ; preds = %26
  %63 = load i32, ptr %9, align 4
  %64 = load i32, ptr %10, align 4
  %65 = sub nsw i32 %63, %64
  store i32 %65, ptr %3, align 4
  br label %70

66:                                               ; preds = %26
  %67 = load i32, ptr %7, align 4
  %68 = load i32, ptr %8, align 4
  %69 = sub nsw i32 %67, %68
  store i32 %69, ptr %3, align 4
  br label %70

70:                                               ; preds = %66, %62, %24
  %71 = load i32, ptr %3, align 4
  ret i32 %71
}