; Function Attrs: mustprogress nofree norecurse nosync nounwind willreturn memory(argmem: read) uwtable
define internal noundef i32 @_ZN3gmxL5pcompEPKvS1_(ptr nocapture noundef readonly %0, ptr nocapture noundef readonly %1) #4 {
  %3 = getelementptr inbounds i8, ptr %0, i64 12
  %4 = load i32, ptr %3, align 4
  %5 = getelementptr inbounds i8, ptr %1, i64 12
  %6 = load i32, ptr %5, align 4
  %7 = sub nsw i32 %4, %6
  %.not = icmp eq i32 %7, 0
  br i1 %.not, label %8, label %26

8:                                                ; preds = %2
  %9 = getelementptr inbounds i8, ptr %0, i64 4
  %10 = getelementptr inbounds i8, ptr %0, i64 8
  %11 = load i32, ptr %10, align 4
  %12 = load i32, ptr %9, align 4
  %13 = tail call i32 @llvm.smin.i32(i32 %11, i32 %12)
  %14 = getelementptr inbounds i8, ptr %1, i64 4
  %15 = getelementptr inbounds i8, ptr %1, i64 8
  %16 = load i32, ptr %15, align 4
  %17 = load i32, ptr %14, align 4
  %18 = tail call i32 @llvm.smin.i32(i32 %16, i32 %17)
  %19 = icmp eq i32 %13, %18
  br i1 %19, label %20, label %24

20:                                               ; preds = %8
  %21 = tail call i32 @llvm.smax.i32(i32 %17, i32 %16)
  %22 = tail call i32 @llvm.smax.i32(i32 %12, i32 %11)
  %23 = sub nsw i32 %22, %21
  br label %26

24:                                               ; preds = %8
  %25 = sub nsw i32 %13, %18
  br label %26

26:                                               ; preds = %2, %24, %20
  %.0 = phi i32 [ %23, %20 ], [ %25, %24 ], [ %7, %2 ]
  ret i32 %.0
}